; Function Attrs: mustprogress uwtable
define internal noundef zeroext i1 @"_ZNSt17_Function_handlerIFbvEZN6google8protobuf2io7Printer9ValueImplILb1EE18ToStringOrCallbackIZZNS2_8compiler3cpp13FileGenerator19GenerateProtoHeaderEPS4_St17basic_string_viewIcSt11char_traitsIcEEENK3$_0clEvEUlvE1_vEESt7variantIJNSt7__cxx1112basic_stringIcSE_SaIcEEESt8functionIS0_EEEOT_NS6_5Rank2EEUlvE_E9_M_invokeERKSt9_Any_data"(ptr nocapture noundef nonnull readonly align 8 dereferenceable(16) %__functor) #3 align 2 {
entry:
  %__functor.val = load ptr, ptr %__functor, align 8
  %0 = getelementptr inbounds i8, ptr %__functor.val, i64 24
  %1 = load i8, ptr %0, align 8
  %2 = and i8 %1, 1
  %tobool.not.i.i.i = icmp eq i8 %2, 0
  br i1 %tobool.not.i.i.i, label %if.end.i.i.i, label %"_ZSt10__invoke_rIbRZN6google8protobuf2io7Printer9ValueImplILb1EE18ToStringOrCallbackIZZNS1_8compiler3cpp13FileGenerator19GenerateProtoHeaderEPS3_St17basic_string_viewIcSt11char_traitsIcEEENK3$_0clEvEUlvE1_vEESt7variantIJNSt7__cxx1112basic_stringIcSD_SaIcEEESt8functionIFbvEEEEOT_NS5_5Rank2EEUlvE_JEENSt9enable_ifIX16is_invocable_r_vISQ_T0_DpT1_EESQ_E4typeEOSW_DpOSX_.exit"

if.end.i.i.i:                                     ; preds = %entry
  store i8 1, ptr %0, align 8
  %3 = load ptr, ptr %__functor.val, align 8
  %4 = getelementptr inbounds i8, ptr %__functor.val, i64 8
  %5 = load ptr, ptr %4, align 8
  %6 = load ptr, ptr %5, align 8
  %7 = getelementptr inbounds i8, ptr %__functor.val, i64 16
  %8 = load ptr, ptr %7, align 8
  %agg.tmp.sroa.0.0.copyload.i.i.i.i = load i64, ptr %8, align 8
  %agg.tmp.sroa.2.0..sroa_idx.i.i.i.i = getelementptr inbounds i8, ptr %8, i64 8
  %agg.tmp.sroa.2.0.copyload.i.i.i.i = load ptr, ptr %agg.tmp.sroa.2.0..sroa_idx.i.i.i.i, align 8
  tail call void @_ZN6google8protobuf8compiler3cpp13FileGenerator22GenerateMetadataPragmaEPNS0_2io7PrinterESt17basic_string_viewIcSt11char_traitsIcEE(ptr noundef nonnull align 8 dereferenceable(752) %3, ptr noundef %6, i64 %agg.tmp.sroa.0.0.copyload.i.i.i.i, ptr %agg.tmp.sroa.2.0.copyload.i.i.i.i)
  store i8 0, ptr %0, align 8
  br label %"_ZSt10__invoke_rIbRZN6google8protobuf2io7Printer9ValueImplILb1EE18ToStringOrCallbackIZZNS1_8compiler3cpp13FileGenerator19GenerateProtoHeaderEPS3_St17basic_string_viewIcSt11char_traitsIcEEENK3$_0clEvEUlvE1_vEESt7variantIJNSt7__cxx1112basic_stringIcSD_SaIcEEESt8functionIFbvEEEEOT_NS5_5Rank2EEUlvE_JEENSt9enable_ifIX16is_invocable_r_vISQ_T0_DpT1_EESQ_E4typeEOSW_DpOSX_.exit"

"_ZSt10__invoke_rIbRZN6google8protobuf2io7Printer9ValueImplILb1EE18ToStringOrCallbackIZZNS1_8compiler3cpp13FileGenerator19GenerateProtoHeaderEPS3_St17basic_string_viewIcSt11char_traitsIcEEENK3$_0clEvEUlvE1_vEESt7variantIJNSt7__cxx1112basic_stringIcSD_SaIcEEESt8functionIFbvEEEEOT_NS5_5Rank2EEUlvE_JEENSt9enable_ifIX16is_invocable_r_vISQ_T0_DpT1_EESQ_E4typeEOSW_DpOSX_.exit": ; preds = %entry, %if.end.i.i.i
  ret i1 %tobool.not.i.i.i
}